; Function Attrs: mustprogress uwtable
define dso_local noundef zeroext i1 @_ZN4Luau8Unifier25unifyEPKNS_7AnyTypeEPKNS_12FunctionTypeE(ptr noundef nonnull align 8 dereferenceable(336) %0, ptr readnone captures(none) %1, ptr noundef readonly captures(none) %2) local_unnamed_addr #4 align 2 {
  %4 = getelementptr inbounds nuw i8, ptr %2, i64 216
  %5 = load ptr, ptr %4, align 8, !tbaa !113
  %6 = getelementptr inbounds nuw i8, ptr %0, i64 8
  %7 = load ptr, ptr %6, align 8, !tbaa !142
  %8 = getelementptr inbounds nuw i8, ptr %7, i64 192
  %9 = load ptr, ptr %8, align 8, !tbaa !202
  %10 = tail call noundef zeroext i1 @_ZN4Luau8Unifier25unifyEPKNS_11TypePackVarES3_(ptr noundef nonnull align 8 dereferenceable(336) %0, ptr noundef %5, ptr noundef %9)
  %11 = load ptr, ptr %6, align 8, !tbaa !142
  %12 = getelementptr inbounds nuw i8, ptr %11, i64 192
  %13 = load ptr, ptr %12, align 8, !tbaa !202
  %14 = getelementptr inbounds nuw i8, ptr %2, i64 224
  %15 = load ptr, ptr %14, align 8, !tbaa !151
  %16 = tail call noundef zeroext i1 @_ZN4Luau8Unifier25unifyEPKNS_11TypePackVarES3_(ptr noundef nonnull align 8 dereferenceable(336) %0, ptr noundef %13, ptr noundef %15)
  %17 = and i1 %10, %16
  ret i1 %17
}